target datalayout = "e-m:e-p270:32:32-p271:32:32-p272:64:64-i64:64-i128:128-f80:128-n8:16:32:64-S128"
target triple = "x86_64-pc-linux-gnu"

%struct.CK_FUNCTION_LIST = type { %struct.CK_VERSION, ptr, ptr, ptr, ptr, ptr, ptr, ptr, ptr, ptr, ptr, ptr, ptr, ptr, ptr, ptr, ptr, ptr, ptr, ptr, ptr, ptr, ptr, ptr, ptr, ptr, ptr, ptr, ptr, ptr, ptr, ptr, ptr, ptr, ptr, ptr, ptr, ptr, ptr, ptr, ptr, ptr, ptr, ptr, ptr, ptr, ptr, ptr, ptr, ptr, ptr, ptr, ptr, ptr, ptr, ptr, ptr, ptr, ptr, ptr, ptr, ptr, ptr, ptr, ptr, ptr, ptr, ptr, ptr }
%struct.CK_VERSION = type { i8, i8 }
%struct.JNINativeInterface_ = type { ptr, ptr, ptr, ptr, ptr, ptr, ptr, ptr, ptr, ptr, ptr, ptr, ptr, ptr, ptr, ptr, ptr, ptr, ptr, ptr, ptr, ptr, ptr, ptr, ptr, ptr, ptr, ptr, ptr, ptr, ptr, ptr, ptr, ptr, ptr, ptr, ptr, ptr, ptr, ptr, ptr, ptr, ptr, ptr, ptr, ptr, ptr, ptr, ptr, ptr, ptr, ptr, ptr, ptr, ptr, ptr, ptr, ptr, ptr, ptr, ptr, ptr, ptr, ptr, ptr, ptr, ptr, ptr, ptr, ptr, ptr, ptr, ptr, ptr, ptr, ptr, ptr, ptr, ptr, ptr, ptr, ptr, ptr, ptr, ptr, ptr, ptr, ptr, ptr, ptr, ptr, ptr, ptr, ptr, ptr, ptr, ptr, ptr, ptr, ptr, ptr, ptr, ptr, ptr, ptr, ptr, ptr, ptr, ptr, ptr, ptr, ptr, ptr, ptr, ptr, ptr, ptr, ptr, ptr, ptr, ptr, ptr, ptr, ptr, ptr, ptr, ptr, ptr, ptr, ptr, ptr, ptr, ptr, ptr, ptr, ptr, ptr, ptr, ptr, ptr, ptr, ptr, ptr, ptr, ptr, ptr, ptr, ptr, ptr, ptr, ptr, ptr, ptr, ptr, ptr, ptr, ptr, ptr, ptr, ptr, ptr, ptr, ptr, ptr, ptr, ptr, ptr, ptr, ptr, ptr, ptr, ptr, ptr, ptr, ptr, ptr, ptr, ptr, ptr, ptr, ptr, ptr, ptr, ptr, ptr, ptr, ptr, ptr, ptr, ptr, ptr, ptr, ptr, ptr, ptr, ptr, ptr, ptr, ptr, ptr, ptr, ptr, ptr, ptr, ptr, ptr, ptr, ptr, ptr, ptr, ptr, ptr, ptr, ptr, ptr, ptr, ptr, ptr, ptr, ptr, ptr, ptr, ptr, ptr, ptr, ptr, ptr, ptr, ptr, ptr, ptr, ptr, ptr, ptr, ptr }

; Function Attrs: nounwind uwtable
define i64 @Java_sun_security_pkcs11_wrapper_PKCS11_C_1UnwrapKey(ptr noundef %0, ptr noundef %1, i64 noundef %2, ptr noundef %3, i64 noundef %4, ptr noundef %5, ptr noundef %6) #0 {
  %8 = alloca i64, align 8
  %9 = alloca ptr, align 8
  %10 = alloca ptr, align 8
  %11 = alloca i64, align 8
  %12 = alloca ptr, align 8
  %13 = alloca i64, align 8
  %14 = alloca ptr, align 8
  %15 = alloca ptr, align 8
  %16 = alloca i64, align 8
  %17 = alloca ptr, align 8
  %18 = alloca i64, align 8
  %19 = alloca ptr, align 8
  %20 = alloca i64, align 8
  %21 = alloca ptr, align 8
  %22 = alloca i64, align 8
  %23 = alloca i64, align 8
  %24 = alloca i64, align 8
  %25 = alloca i64, align 8
  %26 = alloca ptr, align 8
  store ptr %0, ptr %9, align 8
  store ptr %1, ptr %10, align 8
  store i64 %2, ptr %11, align 8
  store ptr %3, ptr %12, align 8
  store i64 %4, ptr %13, align 8
  store ptr %5, ptr %14, align 8
  store ptr %6, ptr %15, align 8
  store ptr null, ptr %17, align 8
  store ptr null, ptr %19, align 8
  store ptr null, ptr %21, align 8
  store i64 0, ptr %22, align 8
  store i64 0, ptr %23, align 8
  store i64 0, ptr %24, align 8
  %27 = load ptr, ptr %9, align 8
  %28 = load ptr, ptr %10, align 8
  %29 = call ptr @getFunctionList(ptr noundef %27, ptr noundef %28)
  store ptr %29, ptr %26, align 8
  %30 = load ptr, ptr %26, align 8
  %31 = icmp eq ptr %30, null
  br i1 %31, label %32, label %33

32:                                               ; preds = %7
  store i64 0, ptr %8, align 8
  br label %95

33:                                               ; preds = %7
  %34 = load i64, ptr %11, align 8
  store i64 %34, ptr %16, align 8
  %35 = load ptr, ptr %9, align 8
  %36 = load ptr, ptr %12, align 8
  %37 = call ptr @jMechanismToCKMechanismPtr(ptr noundef %35, ptr noundef %36)
  store ptr %37, ptr %17, align 8
  %38 = load ptr, ptr %9, align 8
  %39 = load ptr, ptr %38, align 8
  %40 = getelementptr inbounds %struct.JNINativeInterface_, ptr %39, i32 0, i32 228
  %41 = load ptr, ptr %40, align 8
  %42 = load ptr, ptr %9, align 8
  %43 = call zeroext i8 %41(ptr noundef %42)
  %44 = icmp ne i8 %43, 0
  br i1 %44, label %45, label %46

45:                                               ; preds = %33
  store i64 0, ptr %8, align 8
  br label %95

46:                                               ; preds = %33
  %47 = load i64, ptr %13, align 8
  store i64 %47, ptr %18, align 8
  %48 = load ptr, ptr %9, align 8
  %49 = load ptr, ptr %14, align 8
  call void @jByteArrayToCKByteArray(ptr noundef %48, ptr noundef %49, ptr noundef %19, ptr noundef %20)
  %50 = load ptr, ptr %9, align 8
  %51 = load ptr, ptr %50, align 8
  %52 = getelementptr inbounds %struct.JNINativeInterface_, ptr %51, i32 0, i32 228
  %53 = load ptr, ptr %52, align 8
  %54 = load ptr, ptr %9, align 8
  %55 = call zeroext i8 %53(ptr noundef %54)
  %56 = icmp ne i8 %55, 0
  br i1 %56, label %57, label %58

57:                                               ; preds = %46
  br label %88

58:                                               ; preds = %46
  %59 = load ptr, ptr %9, align 8
  %60 = load ptr, ptr %15, align 8
  call void @jAttributeArrayToCKAttributeArray(ptr noundef %59, ptr noundef %60, ptr noundef %21, ptr noundef %22)
  %61 = load ptr, ptr %9, align 8
  %62 = load ptr, ptr %61, align 8
  %63 = getelementptr inbounds %struct.JNINativeInterface_, ptr %62, i32 0, i32 228
  %64 = load ptr, ptr %63, align 8
  %65 = load ptr, ptr %9, align 8
  %66 = call zeroext i8 %64(ptr noundef %65)
  %67 = icmp ne i8 %66, 0
  br i1 %67, label %68, label %69

68:                                               ; preds = %58
  br label %88

69:                                               ; preds = %58
  %70 = load ptr, ptr %26, align 8
  %71 = getelementptr inbounds %struct.CK_FUNCTION_LIST, ptr %70, i32 0, i32 62
  %72 = load ptr, ptr %71, align 8
  %73 = load i64, ptr %16, align 8
  %74 = load ptr, ptr %17, align 8
  %75 = load i64, ptr %18, align 8
  %76 = load ptr, ptr %19, align 8
  %77 = load i64, ptr %20, align 8
  %78 = load ptr, ptr %21, align 8
  %79 = load i64, ptr %22, align 8
  %80 = call i64 %72(i64 noundef %73, ptr noundef %74, i64 noundef %75, ptr noundef %76, i64 noundef %77, ptr noundef %78, i64 noundef %79, ptr noundef %23)
  store i64 %80, ptr %25, align 8
  %81 = load ptr, ptr %9, align 8
  %82 = load i64, ptr %25, align 8
  %83 = call i64 @ckAssertReturnValueOK(ptr noundef %81, i64 noundef %82)
  %84 = icmp eq i64 %83, 0
  br i1 %84, label %85, label %87

85:                                               ; preds = %69
  %86 = load i64, ptr %23, align 8
  store i64 %86, ptr %24, align 8
  br label %87

87:                                               ; preds = %85, %69
  br label %88

88:                                               ; preds = %87, %68, %57
  %89 = load ptr, ptr %17, align 8
  call void @freeCKMechanismPtr(ptr noundef %89)
  %90 = load ptr, ptr %21, align 8
  %91 = load i64, ptr %22, align 8
  %92 = trunc i64 %91 to i32
  call void @freeCKAttributeArray(ptr noundef %90, i32 noundef %92)
  %93 = load ptr, ptr %19, align 8
  call void @free(ptr noundef %93) #7
  %94 = load i64, ptr %24, align 8
  store i64 %94, ptr %8, align 8
  br label %95

95:                                               ; preds = %88, %45, %32
  %96 = load i64, ptr %8, align 8
  ret i64 %96
}