; Function Attrs: nounwind uwtable
define i64 @Java_sun_security_pkcs11_wrapper_PKCS11_C_1UnwrapKey(ptr noundef %0, ptr noundef %1, i64 noundef %2, ptr noundef %3, i64 noundef %4, ptr noundef %5, ptr noundef %6) local_unnamed_addr #0 {
  %8 = alloca ptr, align 8
  %9 = alloca i64, align 8
  %10 = alloca ptr, align 8
  %11 = alloca i64, align 8
  %12 = alloca i64, align 8
  store ptr null, ptr %8, align 8
  store ptr null, ptr %10, align 8
  store i64 0, ptr %11, align 8
  store i64 0, ptr %12, align 8
  %13 = tail call ptr @getFunctionList(ptr noundef %0, ptr noundef %1) #5
  %14 = icmp eq ptr %13, null
  br i1 %14, label %47, label %15

15:                                               ; preds = %7
  %16 = tail call ptr @jMechanismToCKMechanismPtr(ptr noundef %0, ptr noundef %3) #5
  %17 = load ptr, ptr %0, align 8
  %18 = getelementptr inbounds i8, ptr %17, i64 1824
  %19 = load ptr, ptr %18, align 8
  %20 = tail call zeroext i8 %19(ptr noundef nonnull %0) #5
  %.not = icmp eq i8 %20, 0
  br i1 %.not, label %21, label %47

21:                                               ; preds = %15
  call void @jByteArrayToCKByteArray(ptr noundef nonnull %0, ptr noundef %5, ptr noundef nonnull %8, ptr noundef nonnull %9) #5
  %22 = load ptr, ptr %0, align 8
  %23 = getelementptr inbounds i8, ptr %22, i64 1824
  %24 = load ptr, ptr %23, align 8
  %25 = call zeroext i8 %24(ptr noundef nonnull %0) #5
  %.not27 = icmp eq i8 %25, 0
  br i1 %.not27, label %26, label %42

26:                                               ; preds = %21
  call void @jAttributeArrayToCKAttributeArray(ptr noundef nonnull %0, ptr noundef %6, ptr noundef nonnull %10, ptr noundef nonnull %11) #5
  %27 = load ptr, ptr %0, align 8
  %28 = getelementptr inbounds i8, ptr %27, i64 1824
  %29 = load ptr, ptr %28, align 8
  %30 = call zeroext i8 %29(ptr noundef nonnull %0) #5
  %.not28 = icmp eq i8 %30, 0
  br i1 %.not28, label %31, label %42

31:                                               ; preds = %26
  %32 = getelementptr inbounds i8, ptr %13, i64 496
  %33 = load ptr, ptr %32, align 8
  %34 = load ptr, ptr %8, align 8
  %35 = load i64, ptr %9, align 8
  %36 = load ptr, ptr %10, align 8
  %37 = load i64, ptr %11, align 8
  %38 = call i64 %33(i64 noundef %2, ptr noundef %16, i64 noundef %4, ptr noundef %34, i64 noundef %35, ptr noundef %36, i64 noundef %37, ptr noundef nonnull %12) #5
  %39 = call i64 @ckAssertReturnValueOK(ptr noundef nonnull %0, i64 noundef %38) #5
  %40 = icmp eq i64 %39, 0
  %41 = load i64, ptr %12, align 8
  %spec.select = select i1 %40, i64 %41, i64 0
  br label %42

42:                                               ; preds = %31, %26, %21
  %.025 = phi i64 [ 0, %21 ], [ 0, %26 ], [ %spec.select, %31 ]
  call void @freeCKMechanismPtr(ptr noundef %16) #5
  %43 = load ptr, ptr %10, align 8
  %44 = load i64, ptr %11, align 8
  %45 = trunc i64 %44 to i32
  call void @freeCKAttributeArray(ptr noundef %43, i32 noundef %45) #5
  %46 = load ptr, ptr %8, align 8
  call void @free(ptr noundef %46) #5
  br label %47

47:                                               ; preds = %15, %7, %42
  %.0 = phi i64 [ %.025, %42 ], [ 0, %7 ], [ 0, %15 ]
  ret i64 %.0
}